target datalayout = "e-m:e-p270:32:32-p271:32:32-p272:64:64-i64:64-i128:128-f80:128-n8:16:32:64-S128"
target triple = "x86_64-unknown-linux-gnu"

%"class.std::__cxx11::basic_string" = type { %"struct.std::__cxx11::basic_string<char>::_Alloc_hider", i64, %union.anon }
%"struct.std::__cxx11::basic_string<char>::_Alloc_hider" = type { ptr }
%union.anon = type { i64, [8 x i8] }
%"class.std::__cxx11::basic_ostringstream" = type { %"class.std::basic_ostream.base", %"class.std::__cxx11::basic_stringbuf", %"class.std::basic_ios" }
%"class.std::basic_ostream.base" = type { ptr }
%"class.std::__cxx11::basic_stringbuf" = type { %"class.std::basic_streambuf", i32, %"class.std::__cxx11::basic_string" }
%"class.std::basic_streambuf" = type { ptr, ptr, ptr, ptr, ptr, ptr, ptr, %"class.std::locale" }
%"class.std::locale" = type { ptr }
%"class.std::basic_ios" = type { %"class.std::ios_base", ptr, i8, i8, ptr, ptr, ptr, ptr }
%"class.std::ios_base" = type { ptr, i64, i64, i32, i32, i32, ptr, %"struct.std::ios_base::_Words", [8 x %"struct.std::ios_base::_Words"], i32, ptr, %"class.std::locale" }
%"struct.std::ios_base::_Words" = type { ptr, i64 }

@.str.80 = private unnamed_addr constant [1 x i8] zeroinitializer, align 1

; Function Attrs: mustprogress nounwind uwtable
define internal noundef i32 @_ZN4node9inspector8protocol12_GLOBAL__N_18hexToIntItEEiT_(i16 noundef zeroext %c) #0 {
entry:
  %retval = alloca i32, align 4
  %c.addr = alloca i16, align 2
  store i16 %c, ptr %c.addr, align 2
  %0 = load i16, ptr %c.addr, align 2
  %conv = zext i16 %0 to i32
  %cmp = icmp sle i32 48, %conv
  br i1 %cmp, label %land.lhs.true, label %if.end

land.lhs.true:                                    ; preds = %entry
  %1 = load i16, ptr %c.addr, align 2
  %conv1 = zext i16 %1 to i32
  %cmp2 = icmp sle i32 %conv1, 57
  br i1 %cmp2, label %if.then, label %if.end

if.then:                                          ; preds = %land.lhs.true
  %2 = load i16, ptr %c.addr, align 2
  %conv3 = zext i16 %2 to i32
  %sub = sub nsw i32 %conv3, 48
  store i32 %sub, ptr %retval, align 4
  br label %return

if.end:                                           ; preds = %land.lhs.true, %entry
  %3 = load i16, ptr %c.addr, align 2
  %conv4 = zext i16 %3 to i32
  %cmp5 = icmp sle i32 65, %conv4
  br i1 %cmp5, label %land.lhs.true6, label %if.end12

land.lhs.true6:                                   ; preds = %if.end
  %4 = load i16, ptr %c.addr, align 2
  %conv7 = zext i16 %4 to i32
  %cmp8 = icmp sle i32 %conv7, 70
  br i1 %cmp8, label %if.then9, label %if.end12

if.then9:                                         ; preds = %land.lhs.true6
  %5 = load i16, ptr %c.addr, align 2
  %conv10 = zext i16 %5 to i32
  %sub11 = sub nsw i32 %conv10, 65
  %add = add nsw i32 %sub11, 10
  store i32 %add, ptr %retval, align 4
  br label %return

if.end12:                                         ; preds = %land.lhs.true6, %if.end
  %6 = load i16, ptr %c.addr, align 2
  %conv13 = zext i16 %6 to i32
  %cmp14 = icmp sle i32 97, %conv13
  br i1 %cmp14, label %land.lhs.true15, label %if.end22

land.lhs.true15:                                  ; preds = %if.end12
  %7 = load i16, ptr %c.addr, align 2
  %conv16 = zext i16 %7 to i32
  %cmp17 = icmp sle i32 %conv16, 102
  br i1 %cmp17, label %if.then18, label %if.end22

if.then18:                                        ; preds = %land.lhs.true15
  %8 = load i16, ptr %c.addr, align 2
  %conv19 = zext i16 %8 to i32
  %sub20 = sub nsw i32 %conv19, 97
  %add21 = add nsw i32 %sub20, 10
  store i32 %add21, ptr %retval, align 4
  br label %return

if.end22:                                         ; preds = %land.lhs.true15, %if.end12
  store i32 0, ptr %retval, align 4
  br label %return

return:                                           ; preds = %if.end22, %if.then18, %if.then9, %if.then
  %9 = load i32, ptr %retval, align 4
  ret i32 %9
}

; Function Attrs: mustprogress nounwind uwtable
define linkonce_odr dso_local void @_ZN4node9inspector8protocol10StringUtil13builderAppendERNSt7__cxx1119basic_ostringstreamIcSt11char_traitsIcESaIcEEEc(ptr noundef nonnull align 8 dereferenceable(112) %builder, i8 noundef signext %c) #0 comdat {
entry:
  %builder.addr = alloca ptr, align 8
  %c.addr = alloca i8, align 1
  store ptr %builder, ptr %builder.addr, align 8
  store i8 %c, ptr %c.addr, align 1
  %0 = load ptr, ptr %builder.addr, align 8
  %1 = load i8, ptr %c.addr, align 1
  %call = call noundef nonnull align 8 dereferenceable(8) ptr @_ZNSo3putEc(ptr noundef nonnull align 8 dereferenceable(8) %0, i8 noundef signext %1)
  ret void
}

; Function Attrs: mustprogress nounwind uwtable
define linkonce_odr dso_local void @_ZN4node9inspector8protocol10StringUtil15builderToStringERKNSt7__cxx1119basic_ostringstreamIcSt11char_traitsIcESaIcEEE(ptr noalias sret(%"class.std::__cxx11::basic_string") align 8 %agg.result, ptr noundef nonnull align 8 dereferenceable(112) %builder) #0 comdat {
entry:
  %result.ptr = alloca ptr, align 8
  %builder.addr = alloca ptr, align 8
  store ptr %agg.result, ptr %result.ptr, align 8
  store ptr %builder, ptr %builder.addr, align 8
  %0 = load ptr, ptr %builder.addr, align 8
  call void @_ZNKSt7__cxx1119basic_ostringstreamIcSt11char_traitsIcESaIcEE3strEv(ptr sret(%"class.std::__cxx11::basic_string") align 8 %agg.result, ptr noundef nonnull align 8 dereferenceable(112) %0)
  ret void
}

; Function Attrs: mustprogress nounwind uwtable
define internal noundef zeroext i1 @_ZN4node9inspector8protocol12_GLOBAL__N_112decodeStringItEEbPKT_S6_PNSt7__cxx1119basic_ostringstreamIcSt11char_traitsIcESaIcEEE(ptr noundef %start, ptr noundef %end, ptr noundef %output) #0 {
entry:
  %retval = alloca i1, align 1
  %start.addr = alloca ptr, align 8
  %end.addr = alloca ptr, align 8
  %output.addr = alloca ptr, align 8
  %c = alloca i16, align 2
  store ptr %start, ptr %start.addr, align 8
  store ptr %end, ptr %end.addr, align 8
  store ptr %output, ptr %output.addr, align 8
  br label %while.cond

while.cond:                                       ; preds = %sw.epilog, %if.then, %entry
  %0 = load ptr, ptr %start.addr, align 8
  %1 = load ptr, ptr %end.addr, align 8
  %cmp = icmp ult ptr %0, %1
  br i1 %cmp, label %while.body, label %while.end

while.body:                                       ; preds = %while.cond
  %2 = load ptr, ptr %start.addr, align 8
  %incdec.ptr = getelementptr inbounds i16, ptr %2, i32 1
  store ptr %incdec.ptr, ptr %start.addr, align 8
  %3 = load i16, ptr %2, align 2
  store i16 %3, ptr %c, align 2
  %4 = load i16, ptr %c, align 2
  %conv = zext i16 %4 to i32
  %cmp1 = icmp ne i32 92, %conv
  br i1 %cmp1, label %if.then, label %if.end

if.then:                                          ; preds = %while.body
  %5 = load ptr, ptr %output.addr, align 8
  %6 = load i16, ptr %c, align 2
  %conv2 = trunc i16 %6 to i8
  call void @_ZN4node9inspector8protocol10StringUtil13builderAppendERNSt7__cxx1119basic_ostringstreamIcSt11char_traitsIcESaIcEEEc(ptr noundef nonnull align 8 dereferenceable(112) %5, i8 noundef signext %conv2)
  br label %while.cond, !llvm.loop !69

if.end:                                           ; preds = %while.body
  %7 = load ptr, ptr %start.addr, align 8
  %8 = load ptr, ptr %end.addr, align 8
  %cmp3 = icmp eq ptr %7, %8
  br i1 %cmp3, label %if.then4, label %if.end5

if.then4:                                         ; preds = %if.end
  store i1 false, ptr %retval, align 1
  br label %return

if.end5:                                          ; preds = %if.end
  %9 = load ptr, ptr %start.addr, align 8
  %incdec.ptr6 = getelementptr inbounds i16, ptr %9, i32 1
  store ptr %incdec.ptr6, ptr %start.addr, align 8
  %10 = load i16, ptr %9, align 2
  store i16 %10, ptr %c, align 2
  %11 = load i16, ptr %c, align 2
  %conv7 = zext i16 %11 to i32
  %cmp8 = icmp eq i32 %conv7, 120
  br i1 %cmp8, label %if.then9, label %if.end10

if.then9:                                         ; preds = %if.end5
  store i1 false, ptr %retval, align 1
  br label %return

if.end10:                                         ; preds = %if.end5
  %12 = load i16, ptr %c, align 2
  %conv11 = zext i16 %12 to i32
  switch i32 %conv11, label %sw.default [
    i32 34, label %sw.bb
    i32 47, label %sw.bb
    i32 92, label %sw.bb
    i32 98, label %sw.bb12
    i32 102, label %sw.bb13
    i32 110, label %sw.bb14
    i32 114, label %sw.bb15
    i32 116, label %sw.bb16
    i32 118, label %sw.bb17
    i32 117, label %sw.bb18
  ]

sw.bb:                                            ; preds = %if.end10, %if.end10, %if.end10
  br label %sw.epilog

sw.bb12:                                          ; preds = %if.end10
  store i16 8, ptr %c, align 2
  br label %sw.epilog

sw.bb13:                                          ; preds = %if.end10
  store i16 12, ptr %c, align 2
  br label %sw.epilog

sw.bb14:                                          ; preds = %if.end10
  store i16 10, ptr %c, align 2
  br label %sw.epilog

sw.bb15:                                          ; preds = %if.end10
  store i16 13, ptr %c, align 2
  br label %sw.epilog

sw.bb16:                                          ; preds = %if.end10
  store i16 9, ptr %c, align 2
  br label %sw.epilog

sw.bb17:                                          ; preds = %if.end10
  store i16 11, ptr %c, align 2
  br label %sw.epilog

sw.bb18:                                          ; preds = %if.end10
  %13 = load ptr, ptr %start.addr, align 8
  %14 = load i16, ptr %13, align 2
  %call = call noundef i32 @_ZN4node9inspector8protocol12_GLOBAL__N_18hexToIntItEEiT_(i16 noundef zeroext %14)
  %shl = shl i32 %call, 12
  %15 = load ptr, ptr %start.addr, align 8
  %add.ptr = getelementptr inbounds i16, ptr %15, i64 1
  %16 = load i16, ptr %add.ptr, align 2
  %call19 = call noundef i32 @_ZN4node9inspector8protocol12_GLOBAL__N_18hexToIntItEEiT_(i16 noundef zeroext %16)
  %shl20 = shl i32 %call19, 8
  %add = add nsw i32 %shl, %shl20
  %17 = load ptr, ptr %start.addr, align 8
  %add.ptr21 = getelementptr inbounds i16, ptr %17, i64 2
  %18 = load i16, ptr %add.ptr21, align 2
  %call22 = call noundef i32 @_ZN4node9inspector8protocol12_GLOBAL__N_18hexToIntItEEiT_(i16 noundef zeroext %18)
  %shl23 = shl i32 %call22, 4
  %add24 = add nsw i32 %add, %shl23
  %19 = load ptr, ptr %start.addr, align 8
  %add.ptr25 = getelementptr inbounds i16, ptr %19, i64 3
  %20 = load i16, ptr %add.ptr25, align 2
  %call26 = call noundef i32 @_ZN4node9inspector8protocol12_GLOBAL__N_18hexToIntItEEiT_(i16 noundef zeroext %20)
  %add27 = add nsw i32 %add24, %call26
  %conv28 = trunc i32 %add27 to i16
  store i16 %conv28, ptr %c, align 2
  %21 = load ptr, ptr %start.addr, align 8
  %add.ptr29 = getelementptr inbounds i16, ptr %21, i64 4
  store ptr %add.ptr29, ptr %start.addr, align 8
  br label %sw.epilog

sw.default:                                       ; preds = %if.end10
  store i1 false, ptr %retval, align 1
  br label %return

sw.epilog:                                        ; preds = %sw.bb18, %sw.bb17, %sw.bb16, %sw.bb15, %sw.bb14, %sw.bb13, %sw.bb12, %sw.bb
  %22 = load ptr, ptr %output.addr, align 8
  %23 = load i16, ptr %c, align 2
  %conv30 = trunc i16 %23 to i8
  call void @_ZN4node9inspector8protocol10StringUtil13builderAppendERNSt7__cxx1119basic_ostringstreamIcSt11char_traitsIcESaIcEEEc(ptr noundef nonnull align 8 dereferenceable(112) %22, i8 noundef signext %conv30)
  br label %while.cond, !llvm.loop !69

while.end:                                        ; preds = %while.cond
  store i1 true, ptr %retval, align 1
  br label %return

return:                                           ; preds = %while.end, %sw.default, %if.then9, %if.then4
  %24 = load i1, ptr %retval, align 1
  ret i1 %24
}

; Function Attrs: mustprogress nounwind uwtable
define linkonce_odr dso_local void @_ZN4node9inspector8protocol10StringUtil14builderReserveERNSt7__cxx1119basic_ostringstreamIcSt11char_traitsIcESaIcEEEm(ptr noundef nonnull align 8 dereferenceable(112) %builder, i64 noundef %0) #0 comdat {
entry:
  %builder.addr = alloca ptr, align 8
  %.addr = alloca i64, align 8
  store ptr %builder, ptr %builder.addr, align 8
  store i64 %0, ptr %.addr, align 8
  ret void
}

; Function Attrs: mustprogress nounwind uwtable
define internal noundef zeroext i1 @_ZN4node9inspector8protocol12_GLOBAL__N_112decodeStringItEEbPKT_S6_PNSt7__cxx1112basic_stringIcSt11char_traitsIcESaIcEEE(ptr noundef %start, ptr noundef %end, ptr noundef %output) #0 {
entry:
  %retval = alloca i1, align 1
  %start.addr = alloca ptr, align 8
  %end.addr = alloca ptr, align 8
  %output.addr = alloca ptr, align 8
  %buffer = alloca %"class.std::__cxx11::basic_ostringstream", align 8
  %cleanup.dest.slot = alloca i32, align 4
  %ref.tmp = alloca %"class.std::__cxx11::basic_string", align 8
  store ptr %start, ptr %start.addr, align 8
  store ptr %end, ptr %end.addr, align 8
  store ptr %output, ptr %output.addr, align 8
  %0 = load ptr, ptr %start.addr, align 8
  %1 = load ptr, ptr %end.addr, align 8
  %cmp = icmp eq ptr %0, %1
  br i1 %cmp, label %if.then, label %if.end

if.then:                                          ; preds = %entry
  %2 = load ptr, ptr %output.addr, align 8
  %call = call noundef nonnull align 8 dereferenceable(32) ptr @_ZNSt7__cxx1112basic_stringIcSt11char_traitsIcESaIcEEaSEPKc(ptr noundef nonnull align 8 dereferenceable(32) %2, ptr noundef @.str.80)
  store i1 true, ptr %retval, align 1
  br label %return

if.end:                                           ; preds = %entry
  %3 = load ptr, ptr %start.addr, align 8
  %4 = load ptr, ptr %end.addr, align 8
  %cmp1 = icmp ugt ptr %3, %4
  br i1 %cmp1, label %if.then2, label %if.end3

if.then2:                                         ; preds = %if.end
  store i1 false, ptr %retval, align 1
  br label %return

if.end3:                                          ; preds = %if.end
  call void @_ZNSt7__cxx1119basic_ostringstreamIcSt11char_traitsIcESaIcEEC1Ev(ptr noundef nonnull align 8 dereferenceable(112) %buffer)
  %5 = load ptr, ptr %end.addr, align 8
  %6 = load ptr, ptr %start.addr, align 8
  %sub.ptr.lhs.cast = ptrtoint ptr %5 to i64
  %sub.ptr.rhs.cast = ptrtoint ptr %6 to i64
  %sub.ptr.sub = sub i64 %sub.ptr.lhs.cast, %sub.ptr.rhs.cast
  %sub.ptr.div = sdiv exact i64 %sub.ptr.sub, 2
  call void @_ZN4node9inspector8protocol10StringUtil14builderReserveERNSt7__cxx1119basic_ostringstreamIcSt11char_traitsIcESaIcEEEm(ptr noundef nonnull align 8 dereferenceable(112) %buffer, i64 noundef %sub.ptr.div)
  %7 = load ptr, ptr %start.addr, align 8
  %8 = load ptr, ptr %end.addr, align 8
  %call4 = call noundef zeroext i1 @_ZN4node9inspector8protocol12_GLOBAL__N_112decodeStringItEEbPKT_S6_PNSt7__cxx1119basic_ostringstreamIcSt11char_traitsIcESaIcEEE(ptr noundef %7, ptr noundef %8, ptr noundef %buffer)
  br i1 %call4, label %if.end6, label %if.then5

if.then5:                                         ; preds = %if.end3
  store i1 false, ptr %retval, align 1
  store i32 1, ptr %cleanup.dest.slot, align 4
  br label %cleanup

if.end6:                                          ; preds = %if.end3
  call void @_ZN4node9inspector8protocol10StringUtil15builderToStringERKNSt7__cxx1119basic_ostringstreamIcSt11char_traitsIcESaIcEEE(ptr sret(%"class.std::__cxx11::basic_string") align 8 %ref.tmp, ptr noundef nonnull align 8 dereferenceable(112) %buffer)
  %9 = load ptr, ptr %output.addr, align 8
  %call7 = call noundef nonnull align 8 dereferenceable(32) ptr @_ZNSt7__cxx1112basic_stringIcSt11char_traitsIcESaIcEEaSEOS4_(ptr noundef nonnull align 8 dereferenceable(32) %9, ptr noundef nonnull align 8 dereferenceable(32) %ref.tmp) #13
  call void @_ZNSt7__cxx1112basic_stringIcSt11char_traitsIcESaIcEED1Ev(ptr noundef nonnull align 8 dereferenceable(32) %ref.tmp) #13
  store i1 true, ptr %retval, align 1
  store i32 1, ptr %cleanup.dest.slot, align 4
  br label %cleanup

cleanup:                                          ; preds = %if.end6, %if.then5
  call void @_ZNSt7__cxx1119basic_ostringstreamIcSt11char_traitsIcESaIcEED1Ev(ptr noundef nonnull align 8 dereferenceable(112) %buffer) #13
  br label %return

return:                                           ; preds = %cleanup, %if.then2, %if.then
  %10 = load i1, ptr %retval, align 1
  ret i1 %10
}