; Function Attrs: mustprogress nounwind uwtable
define internal fastcc noundef zeroext i1 @_ZN4node9inspector8protocol12_GLOBAL__N_112decodeStringItEEbPKT_S6_PNSt7__cxx1112basic_stringIcSt11char_traitsIcESaIcEEE(ptr noundef readonly %start, ptr noundef readnone %end, ptr noundef %output) unnamed_addr #1 {
entry:
  %buffer = alloca %"class.std::__cxx11::basic_ostringstream", align 8
  %ref.tmp = alloca %"class.std::__cxx11::basic_string", align 8
  %cmp = icmp eq ptr %start, %end
  br i1 %cmp, label %if.then, label %if.end

if.then:                                          ; preds = %entry
  %call = tail call noundef nonnull align 8 dereferenceable(32) ptr @_ZNSt7__cxx1112basic_stringIcSt11char_traitsIcESaIcEEaSEPKc(ptr noundef nonnull align 8 dereferenceable(32) %output, ptr noundef nonnull @.str.80) #27
  br label %return

if.end:                                           ; preds = %entry
  %cmp1 = icmp ugt ptr %start, %end
  br i1 %cmp1, label %return, label %if.end3

if.end3:                                          ; preds = %if.end
  call void @_ZNSt7__cxx1119basic_ostringstreamIcSt11char_traitsIcESaIcEEC1Ev(ptr noundef nonnull align 8 dereferenceable(112) %buffer) #27
  %cmp58.not.i = icmp ult ptr %start, %end
  br i1 %cmp58.not.i, label %while.body.i, label %if.end6

while.body.i:                                     ; preds = %if.end3, %while.cond.backedge.i
  %start.addr.059.i = phi ptr [ %start.addr.0.be.i, %while.cond.backedge.i ], [ %start, %if.end3 ]
  %incdec.ptr.i = getelementptr inbounds i8, ptr %start.addr.059.i, i64 2
  %0 = load i16, ptr %start.addr.059.i, align 2
  %cmp1.not.i = icmp eq i16 %0, 92
  br i1 %cmp1.not.i, label %if.end.i, label %while.cond.backedge.i

while.cond.backedge.i:                            ; preds = %_ZN4node9inspector8protocol12_GLOBAL__N_18hexToIntItEEiT_.exit56.i, %sw.bb17.i, %sw.bb16.i, %sw.bb15.i, %sw.bb14.i, %sw.bb13.i, %sw.bb12.i, %if.end5.i, %if.end5.i, %if.end5.i, %while.body.i
  %.sink.i = phi i16 [ %add27.i, %_ZN4node9inspector8protocol12_GLOBAL__N_18hexToIntItEEiT_.exit56.i ], [ 11, %sw.bb17.i ], [ 9, %sw.bb16.i ], [ 13, %sw.bb15.i ], [ 10, %sw.bb14.i ], [ 12, %sw.bb13.i ], [ 8, %sw.bb12.i ], [ %1, %if.end5.i ], [ %1, %if.end5.i ], [ %1, %if.end5.i ], [ %0, %while.body.i ]
  %start.addr.0.be.i = phi ptr [ %add.ptr29.i, %_ZN4node9inspector8protocol12_GLOBAL__N_18hexToIntItEEiT_.exit56.i ], [ %incdec.ptr6.i, %sw.bb17.i ], [ %incdec.ptr6.i, %sw.bb16.i ], [ %incdec.ptr6.i, %sw.bb15.i ], [ %incdec.ptr6.i, %sw.bb14.i ], [ %incdec.ptr6.i, %sw.bb13.i ], [ %incdec.ptr6.i, %sw.bb12.i ], [ %incdec.ptr6.i, %if.end5.i ], [ %incdec.ptr6.i, %if.end5.i ], [ %incdec.ptr6.i, %if.end5.i ], [ %incdec.ptr.i, %while.body.i ]
  %conv2.i = trunc i16 %.sink.i to i8
  %call.i.i = call noundef nonnull align 8 dereferenceable(8) ptr @_ZNSo3putEc(ptr noundef nonnull align 8 dereferenceable(8) %buffer, i8 noundef signext %conv2.i) #27
  %cmp.not.i = icmp ult ptr %start.addr.0.be.i, %end
  br i1 %cmp.not.i, label %while.body.i, label %if.end6, !llvm.loop !300

if.end.i:                                         ; preds = %while.body.i
  %cmp3.i = icmp eq ptr %incdec.ptr.i, %end
  br i1 %cmp3.i, label %cleanup, label %if.end5.i

if.end5.i:                                        ; preds = %if.end.i
  %incdec.ptr6.i = getelementptr inbounds i8, ptr %start.addr.059.i, i64 4
  %1 = load i16, ptr %incdec.ptr.i, align 2
  switch i16 %1, label %cleanup [
    i16 117, label %_ZN4node9inspector8protocol12_GLOBAL__N_18hexToIntItEEiT_.exit28.i
    i16 34, label %while.cond.backedge.i
    i16 47, label %while.cond.backedge.i
    i16 92, label %while.cond.backedge.i
    i16 98, label %sw.bb12.i
    i16 102, label %sw.bb13.i
    i16 110, label %sw.bb14.i
    i16 114, label %sw.bb15.i
    i16 116, label %sw.bb16.i
    i16 118, label %sw.bb17.i
  ]

sw.bb12.i:                                        ; preds = %if.end5.i
  br label %while.cond.backedge.i

sw.bb13.i:                                        ; preds = %if.end5.i
  br label %while.cond.backedge.i

sw.bb14.i:                                        ; preds = %if.end5.i
  br label %while.cond.backedge.i

sw.bb15.i:                                        ; preds = %if.end5.i
  br label %while.cond.backedge.i

sw.bb16.i:                                        ; preds = %if.end5.i
  br label %while.cond.backedge.i

sw.bb17.i:                                        ; preds = %if.end5.i
  br label %while.cond.backedge.i

_ZN4node9inspector8protocol12_GLOBAL__N_18hexToIntItEEiT_.exit28.i: ; preds = %if.end5.i
  %add.ptr21.i = getelementptr inbounds i8, ptr %start.addr.059.i, i64 8
  %2 = load i16, ptr %add.ptr21.i, align 2
  %3 = add i16 %2, -48
  %or.cond.i30.i = icmp ult i16 %3, 10
  br i1 %or.cond.i30.i, label %_ZN4node9inspector8protocol12_GLOBAL__N_18hexToIntItEEiT_.exit42.i, label %if.end.i31.i

if.end.i31.i:                                     ; preds = %_ZN4node9inspector8protocol12_GLOBAL__N_18hexToIntItEEiT_.exit28.i
  %4 = add i16 %2, -65
  %or.cond1.i32.i = icmp ult i16 %4, 6
  br i1 %or.cond1.i32.i, label %if.then9.i38.i, label %if.end12.i33.i

if.then9.i38.i:                                   ; preds = %if.end.i31.i
  %add.i39.i = add nsw i16 %2, -55
  br label %_ZN4node9inspector8protocol12_GLOBAL__N_18hexToIntItEEiT_.exit42.i

if.end12.i33.i:                                   ; preds = %if.end.i31.i
  %5 = add i16 %2, -97
  %or.cond2.i34.i = icmp ult i16 %5, 6
  %add21.i35.i = add i16 %2, -87
  %spec.select.i36.i = select i1 %or.cond2.i34.i, i16 %add21.i35.i, i16 0
  br label %_ZN4node9inspector8protocol12_GLOBAL__N_18hexToIntItEEiT_.exit42.i

_ZN4node9inspector8protocol12_GLOBAL__N_18hexToIntItEEiT_.exit42.i: ; preds = %if.end12.i33.i, %if.then9.i38.i, %_ZN4node9inspector8protocol12_GLOBAL__N_18hexToIntItEEiT_.exit28.i
  %retval.0.i37.i = phi i16 [ %add.i39.i, %if.then9.i38.i ], [ %spec.select.i36.i, %if.end12.i33.i ], [ %3, %_ZN4node9inspector8protocol12_GLOBAL__N_18hexToIntItEEiT_.exit28.i ]
  %shl23.i = shl i16 %retval.0.i37.i, 4
  %add.ptr25.i = getelementptr inbounds i8, ptr %start.addr.059.i, i64 10
  %6 = load i16, ptr %add.ptr25.i, align 2
  %7 = add i16 %6, -48
  %or.cond.i44.i = icmp ult i16 %7, 10
  br i1 %or.cond.i44.i, label %_ZN4node9inspector8protocol12_GLOBAL__N_18hexToIntItEEiT_.exit56.i, label %if.end.i45.i

if.end.i45.i:                                     ; preds = %_ZN4node9inspector8protocol12_GLOBAL__N_18hexToIntItEEiT_.exit42.i
  %8 = add i16 %6, -65
  %or.cond1.i46.i = icmp ult i16 %8, 6
  br i1 %or.cond1.i46.i, label %if.then9.i52.i, label %if.end12.i47.i

if.then9.i52.i:                                   ; preds = %if.end.i45.i
  %add.i53.i = add nsw i16 %6, -55
  br label %_ZN4node9inspector8protocol12_GLOBAL__N_18hexToIntItEEiT_.exit56.i

if.end12.i47.i:                                   ; preds = %if.end.i45.i
  %9 = add i16 %6, -97
  %or.cond2.i48.i = icmp ult i16 %9, 6
  %add21.i49.i = add i16 %6, -87
  %spec.select.i50.i = select i1 %or.cond2.i48.i, i16 %add21.i49.i, i16 0
  br label %_ZN4node9inspector8protocol12_GLOBAL__N_18hexToIntItEEiT_.exit56.i

_ZN4node9inspector8protocol12_GLOBAL__N_18hexToIntItEEiT_.exit56.i: ; preds = %if.end12.i47.i, %if.then9.i52.i, %_ZN4node9inspector8protocol12_GLOBAL__N_18hexToIntItEEiT_.exit42.i
  %retval.0.i51.i = phi i16 [ %add.i53.i, %if.then9.i52.i ], [ %spec.select.i50.i, %if.end12.i47.i ], [ %7, %_ZN4node9inspector8protocol12_GLOBAL__N_18hexToIntItEEiT_.exit42.i ]
  %add27.i = or i16 %retval.0.i51.i, %shl23.i
  %add.ptr29.i = getelementptr inbounds i8, ptr %start.addr.059.i, i64 12
  br label %while.cond.backedge.i

if.end6:                                          ; preds = %while.cond.backedge.i, %if.end3
  call void @_ZNKSt7__cxx1119basic_ostringstreamIcSt11char_traitsIcESaIcEE3strEv(ptr nonnull sret(%"class.std::__cxx11::basic_string") align 8 %ref.tmp, ptr noundef nonnull align 8 dereferenceable(112) %buffer) #27
  %call7 = call noundef nonnull align 8 dereferenceable(32) ptr @_ZNSt7__cxx1112basic_stringIcSt11char_traitsIcESaIcEEaSEOS4_(ptr noundef nonnull align 8 dereferenceable(32) %output, ptr noundef nonnull align 8 dereferenceable(32) %ref.tmp) #27
  call void @_ZNSt7__cxx1112basic_stringIcSt11char_traitsIcESaIcEED1Ev(ptr noundef nonnull align 8 dereferenceable(32) %ref.tmp) #27
  br label %cleanup

cleanup:                                          ; preds = %if.end5.i, %if.end.i, %if.end6
  %cmp.lcssa.i9 = phi i1 [ true, %if.end6 ], [ false, %if.end.i ], [ false, %if.end5.i ]
  call void @_ZNSt7__cxx1119basic_ostringstreamIcSt11char_traitsIcESaIcEED1Ev(ptr noundef nonnull align 8 dereferenceable(112) %buffer) #27
  br label %return

return:                                           ; preds = %if.end, %cleanup, %if.then
  %retval.1 = phi i1 [ true, %if.then ], [ %cmp.lcssa.i9, %cleanup ], [ false, %if.end ]
  ret i1 %retval.1
}